target datalayout = "e-m:e-p270:32:32-p271:32:32-p272:64:64-i64:64-i128:128-f80:128-n8:16:32:64-S128"
target triple = "x86_64-pc-linux-gnu"

%"class.std::__cxx11::basic_string" = type { %"struct.std::__cxx11::basic_string<char>::_Alloc_hider", i64, %union.anon }
%"struct.std::__cxx11::basic_string<char>::_Alloc_hider" = type { ptr }
%union.anon = type { i64, [8 x i8] }
%"class.testing::internal::MutexBase" = type { %union.pthread_mutex_t, i8, i64 }
%union.pthread_mutex_t = type { %struct.__pthread_mutex_s }
%struct.__pthread_mutex_s = type { i32, i32, i32, i32, i32, i16, i16, %struct.__pthread_internal_list }
%struct.__pthread_internal_list = type { ptr, ptr }
%"class.testing::(anonymous namespace)::MockObjectRegistry" = type { %"class.std::map" }
%"class.std::map" = type { %"class.std::_Rb_tree.63" }
%"class.std::_Rb_tree.63" = type { %"struct.std::_Rb_tree<const void *, std::pair<const void *const, testing::(anonymous namespace)::MockObjectState>, std::_Select1st<std::pair<const void *const, testing::(anonymous namespace)::MockObjectState>>, std::less<const void *>>::_Rb_tree_impl" }
%"struct.std::_Rb_tree<const void *, std::pair<const void *const, testing::(anonymous namespace)::MockObjectState>, std::_Select1st<std::pair<const void *const, testing::(anonymous namespace)::MockObjectState>>, std::less<const void *>>::_Rb_tree_impl" = type { [8 x i8], %"struct.std::_Rb_tree_header" }
%"struct.std::_Rb_tree_header" = type { %"struct.std::_Rb_tree_node_base", i64 }
%"struct.std::_Rb_tree_node_base" = type { i32, ptr, ptr, ptr }
%"class.testing::internal::GTestMutexLock" = type { ptr }
%"struct.testing::(anonymous namespace)::MockObjectState" = type { ptr, i32, %"class.std::__cxx11::basic_string", %"class.std::__cxx11::basic_string", i8, %"class.std::set.73" }
%"class.std::set.73" = type { %"class.std::_Rb_tree.74" }
%"class.std::_Rb_tree.74" = type { %"struct.std::_Rb_tree<testing::internal::UntypedFunctionMockerBase *, testing::internal::UntypedFunctionMockerBase *, std::_Identity<testing::internal::UntypedFunctionMockerBase *>, std::less<testing::internal::UntypedFunctionMockerBase *>>::_Rb_tree_impl" }
%"struct.std::_Rb_tree<testing::internal::UntypedFunctionMockerBase *, testing::internal::UntypedFunctionMockerBase *, std::_Identity<testing::internal::UntypedFunctionMockerBase *>, std::less<testing::internal::UntypedFunctionMockerBase *>>::_Rb_tree_impl" = type { [8 x i8], %"struct.std::_Rb_tree_header" }

@_ZN7testing8internal13g_gmock_mutexE = dso_local global %"class.testing::internal::MutexBase" zeroinitializer, align 8
@_ZN7testing12_GLOBAL__N_122g_mock_object_registryE = internal global %"class.testing::(anonymous namespace)::MockObjectRegistry" zeroinitializer, align 8

; Function Attrs: mustprogress nounwind uwtable
define linkonce_odr dso_local void @_ZN7testing8internal14GTestMutexLockD2Ev(ptr noundef nonnull align 8 dereferenceable(8) %0) unnamed_addr #7 comdat align 2 personality ptr @__gxx_personality_v0 {
  %2 = alloca ptr, align 8
  store ptr %0, ptr %2, align 8, !tbaa !63
  %3 = load ptr, ptr %2, align 8
  %4 = getelementptr inbounds nuw %"class.testing::internal::GTestMutexLock", ptr %3, i32 0, i32 0
  %5 = load ptr, ptr %4, align 8, !tbaa !67
  invoke void @_ZN7testing8internal9MutexBase6UnlockEv(ptr noundef nonnull align 8 dereferenceable(56) %5)
          to label %6 unwind label %7

6:                                                ; preds = %1
  ret void

7:                                                ; preds = %1
  %8 = landingpad { ptr, i32 }
          catch ptr null
  %9 = extractvalue { ptr, i32 } %8, 0
  call void @__clang_call_terminate(ptr %9) #26
  unreachable
}

; Function Attrs: mustprogress nounwind uwtable
define internal noundef nonnull align 8 dereferenceable(48) ptr @_ZN7testing12_GLOBAL__N_118MockObjectRegistry6statesEv(ptr noundef nonnull align 8 dereferenceable(48) %0) #7 align 2 {
  %2 = alloca ptr, align 8
  store ptr %0, ptr %2, align 8, !tbaa !273
  %3 = load ptr, ptr %2, align 8
  %4 = getelementptr inbounds nuw %"class.testing::(anonymous namespace)::MockObjectRegistry", ptr %3, i32 0, i32 0
  ret ptr %4
}

; Function Attrs: mustprogress uwtable
define linkonce_odr dso_local void @_ZN7testing8internal14GTestMutexLockC2EPNS0_9MutexBaseE(ptr noundef nonnull align 8 dereferenceable(8) %0, ptr noundef %1) unnamed_addr #4 comdat align 2 {
  %3 = alloca ptr, align 8
  %4 = alloca ptr, align 8
  store ptr %0, ptr %3, align 8, !tbaa !63
  store ptr %1, ptr %4, align 8, !tbaa !65
  %5 = load ptr, ptr %3, align 8
  %6 = getelementptr inbounds nuw %"class.testing::internal::GTestMutexLock", ptr %5, i32 0, i32 0
  %7 = load ptr, ptr %4, align 8, !tbaa !65
  store ptr %7, ptr %6, align 8, !tbaa !67
  %8 = getelementptr inbounds nuw %"class.testing::internal::GTestMutexLock", ptr %5, i32 0, i32 0
  %9 = load ptr, ptr %8, align 8, !tbaa !67
  call void @_ZN7testing8internal9MutexBase4LockEv(ptr noundef nonnull align 8 dereferenceable(56) %9)
  ret void
}

; Function Attrs: mustprogress uwtable
define dso_local void @_ZN7testing4Mock9AllowLeakEPKv(ptr noundef %0) #4 align 2 personality ptr @__gxx_personality_v0 {
  %2 = alloca ptr, align 8
  %3 = alloca %"class.testing::internal::GTestMutexLock", align 8
  %4 = alloca ptr, align 8
  %5 = alloca i32, align 4
  store ptr %0, ptr %2, align 8, !tbaa !46
  call void @llvm.lifetime.start.p0(i64 8, ptr %3) #3
  call void @_ZN7testing8internal14GTestMutexLockC2EPNS0_9MutexBaseE(ptr noundef nonnull align 8 dereferenceable(8) %3, ptr noundef @_ZN7testing8internal13g_gmock_mutexE)
  %6 = invoke noundef nonnull align 8 dereferenceable(48) ptr @_ZN7testing12_GLOBAL__N_118MockObjectRegistry6statesEv(ptr noundef nonnull align 8 dereferenceable(48) @_ZN7testing12_GLOBAL__N_122g_mock_object_registryE)
          to label %7 unwind label %11

7:                                                ; preds = %1
  %8 = invoke noundef nonnull align 8 dereferenceable(136) ptr @_ZNSt3mapIPKvN7testing12_GLOBAL__N_115MockObjectStateESt4lessIS1_ESaISt4pairIKS1_S4_EEEixERS8_(ptr noundef nonnull align 8 dereferenceable(48) %6, ptr noundef nonnull align 8 dereferenceable(8) %2)
          to label %9 unwind label %11

9:                                                ; preds = %7
  %10 = getelementptr inbounds nuw %"struct.testing::(anonymous namespace)::MockObjectState", ptr %8, i32 0, i32 4
  store i8 1, ptr %10, align 8, !tbaa !291
  call void @_ZN7testing8internal14GTestMutexLockD2Ev(ptr noundef nonnull align 8 dereferenceable(8) %3) #3
  call void @llvm.lifetime.end.p0(i64 8, ptr %3) #3
  ret void

11:                                               ; preds = %7, %1
  %12 = landingpad { ptr, i32 }
          cleanup
  %13 = extractvalue { ptr, i32 } %12, 0
  store ptr %13, ptr %4, align 8
  %14 = extractvalue { ptr, i32 } %12, 1
  store i32 %14, ptr %5, align 4
  call void @_ZN7testing8internal14GTestMutexLockD2Ev(ptr noundef nonnull align 8 dereferenceable(8) %3) #3
  call void @llvm.lifetime.end.p0(i64 8, ptr %3) #3
  br label %15

15:                                               ; preds = %11
  %16 = load ptr, ptr %4, align 8
  %17 = load i32, ptr %5, align 4
  %18 = insertvalue { ptr, i32 } poison, ptr %16, 0
  %19 = insertvalue { ptr, i32 } %18, i32 %17, 1
  resume { ptr, i32 } %19
}